; Function Attrs: mustprogress uwtable
define dso_local void @_ZN4Luau7CodeGen3A6418AssemblyBuilderA644fmovENS1_11RegisterA64ES3_(ptr noundef nonnull align 8 dereferenceable(176) %0, i8 %1, i8 %2) local_unnamed_addr #0 align 2 {
  %4 = and i8 %2, 7
  %5 = icmp eq i8 %4, 4
  %6 = getelementptr inbounds nuw i8, ptr %0, i64 80
  %7 = load i8, ptr %6, align 8, !tbaa !14, !range !46, !noundef !47
  %8 = trunc nuw i8 %7 to i1
  br i1 %5, label %9, label %29

9:                                                ; preds = %3
  br i1 %8, label %10, label %11

10:                                               ; preds = %9
  tail call void @_ZN4Luau7CodeGen3A6418AssemblyBuilderA643logEPKcNS1_11RegisterA64ES5_(ptr noundef nonnull align 8 dereferenceable(176) %0, ptr noundef nonnull @.str.48, i8 %1, i8 %2)
  br label %11

11:                                               ; preds = %10, %9
  %12 = and i8 %1, 7
  %13 = icmp eq i8 %12, 2
  %14 = select i1 %13, i32 -2147483648, i32 0
  %15 = lshr i8 %1, 3
  %16 = zext nneg i8 %15 to i32
  %17 = lshr i8 %2, 3
  %18 = zext nneg i8 %17 to i32
  %19 = shl nuw nsw i32 %18, 5
  %20 = or disjoint i32 %19, %16
  %21 = or disjoint i32 %20, %14
  %22 = or disjoint i32 %21, 509624320
  %23 = getelementptr inbounds nuw i8, ptr %0, i64 160
  %24 = load ptr, ptr %23, align 8, !tbaa !39
  %25 = getelementptr inbounds nuw i8, ptr %24, i64 4
  store ptr %25, ptr %23, align 8, !tbaa !39
  store i32 %22, ptr %24, align 4, !tbaa !48
  %26 = getelementptr inbounds nuw i8, ptr %0, i64 168
  %27 = load ptr, ptr %26, align 8, !tbaa !40
  %28 = icmp eq ptr %27, %25
  br i1 %28, label %_ZN4Luau7CodeGen3A6418AssemblyBuilderA647placeR1EPKcNS1_11RegisterA64ES5_j.exit.sink.split, label %_ZN4Luau7CodeGen3A6418AssemblyBuilderA647placeR1EPKcNS1_11RegisterA64ES5_j.exit

29:                                               ; preds = %3
  br i1 %8, label %30, label %31

30:                                               ; preds = %29
  tail call void @_ZN4Luau7CodeGen3A6418AssemblyBuilderA643logEPKcNS1_11RegisterA64ES5_(ptr noundef nonnull align 8 dereferenceable(176) %0, ptr noundef nonnull @.str.48, i8 %1, i8 %2)
  br label %31

31:                                               ; preds = %30, %29
  %32 = and i8 %1, 7
  %33 = icmp eq i8 %32, 2
  %34 = icmp eq i8 %4, 2
  %35 = or i1 %33, %34
  %36 = select i1 %35, i32 -2147483648, i32 0
  %37 = lshr i8 %1, 3
  %38 = zext nneg i8 %37 to i32
  %39 = lshr i8 %2, 3
  %40 = zext nneg i8 %39 to i32
  %41 = shl nuw nsw i32 %40, 5
  %42 = or disjoint i32 %41, %38
  %43 = or disjoint i32 %42, %36
  %44 = or disjoint i32 %43, 510066688
  %45 = getelementptr inbounds nuw i8, ptr %0, i64 160
  %46 = load ptr, ptr %45, align 8, !tbaa !39
  %47 = getelementptr inbounds nuw i8, ptr %46, i64 4
  store ptr %47, ptr %45, align 8, !tbaa !39
  store i32 %44, ptr %46, align 4, !tbaa !48
  %48 = getelementptr inbounds nuw i8, ptr %0, i64 168
  %49 = load ptr, ptr %48, align 8, !tbaa !40
  %50 = icmp eq ptr %49, %47
  br i1 %50, label %_ZN4Luau7CodeGen3A6418AssemblyBuilderA647placeR1EPKcNS1_11RegisterA64ES5_j.exit.sink.split, label %_ZN4Luau7CodeGen3A6418AssemblyBuilderA647placeR1EPKcNS1_11RegisterA64ES5_j.exit

_ZN4Luau7CodeGen3A6418AssemblyBuilderA647placeR1EPKcNS1_11RegisterA64ES5_j.exit.sink.split: ; preds = %31, %11
  tail call void @_ZN4Luau7CodeGen3A6418AssemblyBuilderA646extendEv(ptr noundef nonnull align 8 dereferenceable(176) %0)
  br label %_ZN4Luau7CodeGen3A6418AssemblyBuilderA647placeR1EPKcNS1_11RegisterA64ES5_j.exit

_ZN4Luau7CodeGen3A6418AssemblyBuilderA647placeR1EPKcNS1_11RegisterA64ES5_j.exit: ; preds = %_ZN4Luau7CodeGen3A6418AssemblyBuilderA647placeR1EPKcNS1_11RegisterA64ES5_j.exit.sink.split, %31, %11
  ret void
}